; Function Attrs: nounwind uwtable
define internal fastcc range(i32 -1, 1) i32 @set_inflate_zdict_ZlibDecompressor(ptr noundef readonly captures(none) %0, ptr noundef nonnull %1) unnamed_addr #0 {
  %3 = alloca %struct.Py_buffer, align 8
  call void @llvm.lifetime.start.p0(i64 80, ptr nonnull %3) #7
  %4 = getelementptr inbounds nuw i8, ptr %1, i64 128
  %5 = load ptr, ptr %4, align 8, !tbaa !84
  %6 = call i32 @PyObject_GetBuffer(ptr noundef %5, ptr noundef nonnull %3, i32 noundef 0) #7
  %7 = icmp eq i32 %6, -1
  br i1 %7, label %zlib_error.exit, label %8

8:                                                ; preds = %2
  %9 = getelementptr inbounds nuw i8, ptr %3, i64 16
  %10 = load i64, ptr %9, align 8, !tbaa !16
  %11 = icmp ugt i64 %10, 4294967295
  br i1 %11, label %12, label %14

12:                                               ; preds = %8
  %13 = load ptr, ptr @PyExc_OverflowError, align 8, !tbaa !15
  call void @PyErr_SetString(ptr noundef %13, ptr noundef nonnull @.str.27) #7
  call void @PyBuffer_Release(ptr noundef nonnull %3) #7
  br label %zlib_error.exit

14:                                               ; preds = %8
  %15 = getelementptr inbounds nuw i8, ptr %1, i64 16
  %16 = load ptr, ptr %3, align 8, !tbaa !28
  %17 = trunc nuw i64 %10 to i32
  %18 = call i32 @inflateSetDictionary(ptr noundef nonnull %15, ptr noundef %16, i32 noundef %17) #7
  call void @PyBuffer_Release(ptr noundef nonnull %3) #7
  %.not = icmp eq i32 %18, 0
  br i1 %.not, label %zlib_error.exit, label %19

19:                                               ; preds = %14
  %20 = getelementptr i8, ptr %1, i64 64
  %.val = load ptr, ptr %20, align 8
  %.not.i = icmp eq i32 %18, -6
  %.0.i = select i1 %.not.i, ptr @.str.16, ptr %.val
  %21 = icmp eq ptr %.0.i, null
  br i1 %21, label %22, label %29

22:                                               ; preds = %19
  switch i32 %18, label %25 [
    i32 -5, label %29
    i32 -2, label %23
    i32 -3, label %24
  ]

23:                                               ; preds = %22
  br label %29

24:                                               ; preds = %22
  br label %29

25:                                               ; preds = %22
  %26 = getelementptr inbounds nuw i8, ptr %0, i64 24
  %27 = load ptr, ptr %26, align 8, !tbaa !12
  %28 = call ptr (ptr, ptr, ...) @PyErr_Format(ptr noundef %27, ptr noundef nonnull @.str.20, i32 noundef %18, ptr noundef nonnull @.str.44) #7
  br label %zlib_error.exit

29:                                               ; preds = %24, %23, %22, %19
  %.1.ph.i = phi ptr [ %.0.i, %19 ], [ @.str.18, %23 ], [ @.str.19, %24 ], [ @.str.17, %22 ]
  %30 = getelementptr inbounds nuw i8, ptr %0, i64 24
  %31 = load ptr, ptr %30, align 8, !tbaa !12
  %32 = call ptr (ptr, ptr, ...) @PyErr_Format(ptr noundef %31, ptr noundef nonnull @.str.21, i32 noundef %18, ptr noundef nonnull @.str.44, ptr noundef nonnull %.1.ph.i) #7
  br label %zlib_error.exit

zlib_error.exit:                                  ; preds = %29, %25, %14, %2, %12
  %.0 = phi i32 [ -1, %12 ], [ -1, %2 ], [ 0, %14 ], [ -1, %25 ], [ -1, %29 ]
  call void @llvm.lifetime.end.p0(i64 80, ptr nonnull %3) #7
  ret i32 %.0
}